target datalayout = "e-m:e-p270:32:32-p271:32:32-p272:64:64-i64:64-i128:128-f80:128-n8:16:32:64-S128"
target triple = "x86_64-pc-linux-gnu"

%struct.ARKodeMemRec = type { ptr, double, ptr, i32, i32, double, double, ptr, i32, double, ptr, i32, i32, ptr, ptr, i32, ptr, ptr, i32, ptr, ptr, ptr, ptr, ptr, ptr, ptr, ptr, ptr, ptr, ptr, ptr, ptr, ptr, ptr, i32, ptr, ptr, i32, ptr, i32, ptr, ptr, ptr, ptr, ptr, ptr, ptr, ptr, ptr, ptr, ptr, ptr, ptr, ptr, ptr, ptr, ptr, ptr, ptr, ptr, ptr, ptr, ptr, ptr, ptr, ptr, i32, ptr, ptr, ptr, ptr, ptr, ptr, ptr, i32, ptr, ptr, ptr, i32, ptr, ptr, ptr, ptr, ptr, ptr, ptr, i32, i32, i32, i32, double, double, double, double, double, double, double, double, double, double, i32, ptr, i64, i32, i32, i32, i32, i64, i64, i32, i64, i64, i64, i64, i64, i64, i64, double, double, double, double, double, i32, double, double, i32, i32, i32, i32, i32, i32, i32, i32, ptr, i32, ptr, ptr, ptr, ptr, i32, i32, i32 }
%struct.ARKodeMRIStepMemRec = type { ptr, ptr, i32, i32, i32, i32, i32, ptr, ptr, i32, i32, i32, ptr, i32, i32, i32, i32, i32, ptr, ptr, ptr, ptr, ptr, ptr, ptr, i32, ptr, i32, ptr, double, double, double, double, i32, double, double, double, double, double, double, i32, i64, i32, i32, i32, ptr, ptr, ptr, ptr, ptr, ptr, ptr, ptr, ptr, double, double, double, i64, i64, i64, i64, i64, i64, i32, i32, i32, double, double, ptr, i32, ptr, ptr }
%struct.MRIStepCouplingMem = type { i32, i32, i32, i32, i32, ptr, ptr, ptr, i32, ptr }

@.str = private unnamed_addr constant [123 x i8] c"generated/home/dtcxzyw/WorkSpace/Projects/compilers/llvm-opt-benchmark/bench/sundials/sundials/src/arkode/arkode_mristep.c\00", align 1
@.str.75 = private unnamed_addr constant [33 x i8] c"Time step module memory is NULL.\00", align 1
@__func__.mriStep_SetCoupling = private unnamed_addr constant [20 x i8] c"mriStep_SetCoupling\00", align 1
@.str.76 = private unnamed_addr constant [60 x i8] c"No MRI method is available for the requested configuration.\00", align 1
@.str.77 = private unnamed_addr constant [50 x i8] c"An error occurred in constructing coupling table.\00", align 1

; Function Attrs: nounwind uwtable
define i32 @mriStep_SetCoupling(ptr noundef %0) #0 {
  %2 = alloca i32, align 4
  %3 = alloca ptr, align 8
  %4 = alloca ptr, align 8
  %5 = alloca i64, align 8
  %6 = alloca i64, align 8
  %7 = alloca i32, align 4
  %8 = alloca i32, align 4
  store ptr %0, ptr %3, align 8, !tbaa !17
  call void @llvm.lifetime.start.p0(i64 8, ptr %4) #8
  call void @llvm.lifetime.start.p0(i64 8, ptr %5) #8
  call void @llvm.lifetime.start.p0(i64 8, ptr %6) #8
  call void @llvm.lifetime.start.p0(i64 4, ptr %7) #8
  store i32 -1, ptr %7, align 4, !tbaa !15
  %9 = load ptr, ptr %3, align 8, !tbaa !17
  %10 = getelementptr inbounds nuw %struct.ARKodeMemRec, ptr %9, i32 0, i32 19
  %11 = load ptr, ptr %10, align 8, !tbaa !70
  %12 = icmp eq ptr %11, null
  br i1 %12, label %13, label %15

13:                                               ; preds = %1
  %14 = load ptr, ptr %3, align 8, !tbaa !17
  call void (ptr, i32, i32, ptr, ptr, ptr, ...) @arkProcessError(ptr noundef %14, i32 noundef -21, i32 noundef 3137, ptr noundef @__func__.mriStep_SetCoupling, ptr noundef @.str, ptr noundef @.str.75)
  store i32 -21, ptr %2, align 4
  store i32 1, ptr %8, align 4
  br label %167

15:                                               ; preds = %1
  %16 = load ptr, ptr %3, align 8, !tbaa !17
  %17 = getelementptr inbounds nuw %struct.ARKodeMemRec, ptr %16, i32 0, i32 19
  %18 = load ptr, ptr %17, align 8, !tbaa !70
  store ptr %18, ptr %4, align 8, !tbaa !19
  %19 = load ptr, ptr %4, align 8, !tbaa !19
  %20 = getelementptr inbounds nuw %struct.ARKodeMRIStepMemRec, ptr %19, i32 0, i32 12
  %21 = load ptr, ptr %20, align 8, !tbaa !137
  %22 = icmp ne ptr %21, null
  br i1 %22, label %23, label %24

23:                                               ; preds = %15
  store i32 0, ptr %2, align 4
  store i32 1, ptr %8, align 4
  br label %167

24:                                               ; preds = %15
  %25 = load ptr, ptr %3, align 8, !tbaa !17
  %26 = getelementptr inbounds nuw %struct.ARKodeMemRec, ptr %25, i32 0, i32 100
  %27 = load i32, ptr %26, align 8, !tbaa !132
  %28 = icmp ne i32 %27, 0
  br i1 %28, label %29, label %74

29:                                               ; preds = %24
  %30 = load ptr, ptr %4, align 8, !tbaa !19
  %31 = getelementptr inbounds nuw %struct.ARKodeMRIStepMemRec, ptr %30, i32 0, i32 5
  %32 = load i32, ptr %31, align 4, !tbaa !82
  %33 = icmp ne i32 %32, 0
  br i1 %33, label %34, label %48

34:                                               ; preds = %29
  %35 = load ptr, ptr %4, align 8, !tbaa !19
  %36 = getelementptr inbounds nuw %struct.ARKodeMRIStepMemRec, ptr %35, i32 0, i32 4
  %37 = load i32, ptr %36, align 8, !tbaa !81
  %38 = icmp ne i32 %37, 0
  br i1 %38, label %39, label %48

39:                                               ; preds = %34
  %40 = load ptr, ptr %4, align 8, !tbaa !19
  %41 = getelementptr inbounds nuw %struct.ARKodeMRIStepMemRec, ptr %40, i32 0, i32 13
  %42 = load i32, ptr %41, align 8, !tbaa !148
  switch i32 %42, label %47 [
    i32 1, label %43
    i32 2, label %44
    i32 3, label %45
    i32 4, label %46
  ]

43:                                               ; preds = %39
  store i32 216, ptr %7, align 4, !tbaa !15
  br label %47

44:                                               ; preds = %39
  store i32 217, ptr %7, align 4, !tbaa !15
  br label %47

45:                                               ; preds = %39
  store i32 207, ptr %7, align 4, !tbaa !15
  br label %47

46:                                               ; preds = %39
  store i32 208, ptr %7, align 4, !tbaa !15
  br label %47

47:                                               ; preds = %39, %46, %45, %44, %43
  br label %73

48:                                               ; preds = %34, %29
  %49 = load ptr, ptr %4, align 8, !tbaa !19
  %50 = getelementptr inbounds nuw %struct.ARKodeMRIStepMemRec, ptr %49, i32 0, i32 5
  %51 = load i32, ptr %50, align 4, !tbaa !82
  %52 = icmp ne i32 %51, 0
  br i1 %52, label %53, label %62

53:                                               ; preds = %48
  %54 = load ptr, ptr %4, align 8, !tbaa !19
  %55 = getelementptr inbounds nuw %struct.ARKodeMRIStepMemRec, ptr %54, i32 0, i32 13
  %56 = load i32, ptr %55, align 8, !tbaa !148
  switch i32 %56, label %61 [
    i32 1, label %57
    i32 2, label %58
    i32 3, label %59
    i32 4, label %60
  ]

57:                                               ; preds = %53
  store i32 214, ptr %7, align 4, !tbaa !15
  br label %61

58:                                               ; preds = %53
  store i32 203, ptr %7, align 4, !tbaa !15
  br label %61

59:                                               ; preds = %53
  store i32 204, ptr %7, align 4, !tbaa !15
  br label %61

60:                                               ; preds = %53
  store i32 205, ptr %7, align 4, !tbaa !15
  br label %61

61:                                               ; preds = %53, %60, %59, %58, %57
  br label %72

62:                                               ; preds = %48
  %63 = load ptr, ptr %4, align 8, !tbaa !19
  %64 = getelementptr inbounds nuw %struct.ARKodeMRIStepMemRec, ptr %63, i32 0, i32 13
  %65 = load i32, ptr %64, align 8, !tbaa !148
  switch i32 %65, label %71 [
    i32 1, label %66
    i32 2, label %67
    i32 3, label %68
    i32 4, label %69
    i32 5, label %70
  ]

66:                                               ; preds = %62
  store i32 209, ptr %7, align 4, !tbaa !15
  br label %71

67:                                               ; preds = %62
  store i32 212, ptr %7, align 4, !tbaa !15
  br label %71

68:                                               ; preds = %62
  store i32 200, ptr %7, align 4, !tbaa !15
  br label %71

69:                                               ; preds = %62
  store i32 202, ptr %7, align 4, !tbaa !15
  br label %71

70:                                               ; preds = %62
  store i32 222, ptr %7, align 4, !tbaa !15
  br label %71

71:                                               ; preds = %62, %70, %69, %68, %67, %66
  br label %72

72:                                               ; preds = %71, %61
  br label %73

73:                                               ; preds = %72, %47
  br label %116

74:                                               ; preds = %24
  %75 = load ptr, ptr %4, align 8, !tbaa !19
  %76 = getelementptr inbounds nuw %struct.ARKodeMRIStepMemRec, ptr %75, i32 0, i32 5
  %77 = load i32, ptr %76, align 4, !tbaa !82
  %78 = icmp ne i32 %77, 0
  br i1 %78, label %79, label %92

79:                                               ; preds = %74
  %80 = load ptr, ptr %4, align 8, !tbaa !19
  %81 = getelementptr inbounds nuw %struct.ARKodeMRIStepMemRec, ptr %80, i32 0, i32 4
  %82 = load i32, ptr %81, align 8, !tbaa !81
  %83 = icmp ne i32 %82, 0
  br i1 %83, label %84, label %92

84:                                               ; preds = %79
  %85 = load ptr, ptr %4, align 8, !tbaa !19
  %86 = getelementptr inbounds nuw %struct.ARKodeMRIStepMemRec, ptr %85, i32 0, i32 13
  %87 = load i32, ptr %86, align 8, !tbaa !148
  switch i32 %87, label %91 [
    i32 2, label %88
    i32 3, label %89
    i32 4, label %90
  ]

88:                                               ; preds = %84
  store i32 223, ptr %7, align 4, !tbaa !15
  br label %91

89:                                               ; preds = %84
  store i32 224, ptr %7, align 4, !tbaa !15
  br label %91

90:                                               ; preds = %84
  store i32 225, ptr %7, align 4, !tbaa !15
  br label %91

91:                                               ; preds = %84, %90, %89, %88
  br label %115

92:                                               ; preds = %79, %74
  %93 = load ptr, ptr %4, align 8, !tbaa !19
  %94 = getelementptr inbounds nuw %struct.ARKodeMRIStepMemRec, ptr %93, i32 0, i32 5
  %95 = load i32, ptr %94, align 4, !tbaa !82
  %96 = icmp ne i32 %95, 0
  br i1 %96, label %97, label %105

97:                                               ; preds = %92
  %98 = load ptr, ptr %4, align 8, !tbaa !19
  %99 = getelementptr inbounds nuw %struct.ARKodeMRIStepMemRec, ptr %98, i32 0, i32 13
  %100 = load i32, ptr %99, align 8, !tbaa !148
  switch i32 %100, label %104 [
    i32 2, label %101
    i32 3, label %102
    i32 4, label %103
  ]

101:                                              ; preds = %97
  store i32 203, ptr %7, align 4, !tbaa !15
  br label %104

102:                                              ; preds = %97
  store i32 204, ptr %7, align 4, !tbaa !15
  br label %104

103:                                              ; preds = %97
  store i32 205, ptr %7, align 4, !tbaa !15
  br label %104

104:                                              ; preds = %97, %103, %102, %101
  br label %114

105:                                              ; preds = %92
  %106 = load ptr, ptr %4, align 8, !tbaa !19
  %107 = getelementptr inbounds nuw %struct.ARKodeMRIStepMemRec, ptr %106, i32 0, i32 13
  %108 = load i32, ptr %107, align 8, !tbaa !148
  switch i32 %108, label %113 [
    i32 2, label %109
    i32 3, label %110
    i32 4, label %111
    i32 5, label %112
  ]

109:                                              ; preds = %105
  store i32 212, ptr %7, align 4, !tbaa !15
  br label %113

110:                                              ; preds = %105
  store i32 201, ptr %7, align 4, !tbaa !15
  br label %113

111:                                              ; preds = %105
  store i32 202, ptr %7, align 4, !tbaa !15
  br label %113

112:                                              ; preds = %105
  store i32 222, ptr %7, align 4, !tbaa !15
  br label %113

113:                                              ; preds = %105, %112, %111, %110, %109
  br label %114

114:                                              ; preds = %113, %104
  br label %115

115:                                              ; preds = %114, %91
  br label %116

116:                                              ; preds = %115, %73
  %117 = load i32, ptr %7, align 4, !tbaa !15
  %118 = icmp eq i32 %117, -1
  br i1 %118, label %119, label %121

119:                                              ; preds = %116
  %120 = load ptr, ptr %3, align 8, !tbaa !17
  call void (ptr, i32, i32, ptr, ptr, ptr, ...) @arkProcessError(ptr noundef %120, i32 noundef -22, i32 noundef 3214, ptr noundef @__func__.mriStep_SetCoupling, ptr noundef @.str, ptr noundef @.str.76)
  store i32 -22, ptr %2, align 4
  store i32 1, ptr %8, align 4
  br label %167

121:                                              ; preds = %116
  %122 = load i32, ptr %7, align 4, !tbaa !15
  %123 = call ptr @MRIStepCoupling_LoadTable(i32 noundef %122)
  %124 = load ptr, ptr %4, align 8, !tbaa !19
  %125 = getelementptr inbounds nuw %struct.ARKodeMRIStepMemRec, ptr %124, i32 0, i32 12
  store ptr %123, ptr %125, align 8, !tbaa !137
  %126 = load ptr, ptr %4, align 8, !tbaa !19
  %127 = getelementptr inbounds nuw %struct.ARKodeMRIStepMemRec, ptr %126, i32 0, i32 12
  %128 = load ptr, ptr %127, align 8, !tbaa !137
  %129 = icmp eq ptr %128, null
  br i1 %129, label %130, label %132

130:                                              ; preds = %121
  %131 = load ptr, ptr %3, align 8, !tbaa !17
  call void (ptr, i32, i32, ptr, ptr, ptr, ...) @arkProcessError(ptr noundef %131, i32 noundef -41, i32 noundef 3222, ptr noundef @__func__.mriStep_SetCoupling, ptr noundef @.str, ptr noundef @.str.77)
  store i32 -41, ptr %2, align 4
  store i32 1, ptr %8, align 4
  br label %167

132:                                              ; preds = %121
  %133 = load ptr, ptr %4, align 8, !tbaa !19
  %134 = getelementptr inbounds nuw %struct.ARKodeMRIStepMemRec, ptr %133, i32 0, i32 12
  %135 = load ptr, ptr %134, align 8, !tbaa !137
  call void @MRIStepCoupling_Space(ptr noundef %135, ptr noundef %5, ptr noundef %6)
  %136 = load i64, ptr %5, align 8, !tbaa !198
  %137 = load ptr, ptr %3, align 8, !tbaa !17
  %138 = getelementptr inbounds nuw %struct.ARKodeMemRec, ptr %137, i32 0, i32 116
  %139 = load i64, ptr %138, align 8, !tbaa !83
  %140 = add nsw i64 %139, %136
  store i64 %140, ptr %138, align 8, !tbaa !83
  %141 = load i64, ptr %6, align 8, !tbaa !198
  %142 = load ptr, ptr %3, align 8, !tbaa !17
  %143 = getelementptr inbounds nuw %struct.ARKodeMemRec, ptr %142, i32 0, i32 115
  %144 = load i64, ptr %143, align 8, !tbaa !84
  %145 = add nsw i64 %144, %141
  store i64 %145, ptr %143, align 8, !tbaa !84
  %146 = load ptr, ptr %4, align 8, !tbaa !19
  %147 = getelementptr inbounds nuw %struct.ARKodeMRIStepMemRec, ptr %146, i32 0, i32 12
  %148 = load ptr, ptr %147, align 8, !tbaa !137
  %149 = getelementptr inbounds nuw %struct.MRIStepCouplingMem, ptr %148, i32 0, i32 2
  %150 = load i32, ptr %149, align 8, !tbaa !141
  %151 = load ptr, ptr %4, align 8, !tbaa !19
  %152 = getelementptr inbounds nuw %struct.ARKodeMRIStepMemRec, ptr %151, i32 0, i32 15
  store i32 %150, ptr %152, align 8, !tbaa !142
  %153 = load ptr, ptr %4, align 8, !tbaa !19
  %154 = getelementptr inbounds nuw %struct.ARKodeMRIStepMemRec, ptr %153, i32 0, i32 12
  %155 = load ptr, ptr %154, align 8, !tbaa !137
  %156 = getelementptr inbounds nuw %struct.MRIStepCouplingMem, ptr %155, i32 0, i32 3
  %157 = load i32, ptr %156, align 4, !tbaa !143
  %158 = load ptr, ptr %4, align 8, !tbaa !19
  %159 = getelementptr inbounds nuw %struct.ARKodeMRIStepMemRec, ptr %158, i32 0, i32 13
  store i32 %157, ptr %159, align 8, !tbaa !148
  %160 = load ptr, ptr %4, align 8, !tbaa !19
  %161 = getelementptr inbounds nuw %struct.ARKodeMRIStepMemRec, ptr %160, i32 0, i32 12
  %162 = load ptr, ptr %161, align 8, !tbaa !137
  %163 = getelementptr inbounds nuw %struct.MRIStepCouplingMem, ptr %162, i32 0, i32 4
  %164 = load i32, ptr %163, align 8, !tbaa !149
  %165 = load ptr, ptr %4, align 8, !tbaa !19
  %166 = getelementptr inbounds nuw %struct.ARKodeMRIStepMemRec, ptr %165, i32 0, i32 14
  store i32 %164, ptr %166, align 4, !tbaa !151
  store i32 0, ptr %2, align 4
  store i32 1, ptr %8, align 4
  br label %167

167:                                              ; preds = %132, %130, %119, %23, %13
  call void @llvm.lifetime.end.p0(i64 4, ptr %7) #8
  call void @llvm.lifetime.end.p0(i64 8, ptr %6) #8
  call void @llvm.lifetime.end.p0(i64 8, ptr %5) #8
  call void @llvm.lifetime.end.p0(i64 8, ptr %4) #8
  %168 = load i32, ptr %2, align 4
  ret i32 %168
}