; Function Attrs: nounwind uwtable
define range(i32 -41, 1) i32 @mriStep_SetCoupling(ptr noundef %0) local_unnamed_addr #0 {
  %2 = alloca i64, align 8
  %3 = alloca i64, align 8
  call void @llvm.lifetime.start.p0(i64 8, ptr nonnull %2) #14
  call void @llvm.lifetime.start.p0(i64 8, ptr nonnull %3) #14
  %4 = getelementptr inbounds nuw i8, ptr %0, i64 136
  %5 = load ptr, ptr %4, align 8, !tbaa !71
  %6 = icmp eq ptr %5, null
  br i1 %6, label %7, label %8

7:                                                ; preds = %1
  tail call void (ptr, i32, i32, ptr, ptr, ptr, ...) @arkProcessError(ptr noundef nonnull %0, i32 noundef -21, i32 noundef 3137, ptr noundef nonnull @__func__.mriStep_SetCoupling, ptr noundef nonnull @.str, ptr noundef nonnull @.str.75) #14
  br label %70

8:                                                ; preds = %1
  %9 = getelementptr inbounds nuw i8, ptr %5, i64 72
  %10 = load ptr, ptr %9, align 8, !tbaa !125
  %.not = icmp eq ptr %10, null
  br i1 %.not, label %11, label %70

11:                                               ; preds = %8
  %12 = getelementptr inbounds nuw i8, ptr %0, i64 768
  %13 = load i32, ptr %12, align 8, !tbaa !120
  %.not35 = icmp eq i32 %13, 0
  %14 = getelementptr inbounds nuw i8, ptr %5, i64 28
  %15 = load i32, ptr %14, align 4, !tbaa !84
  %.not36 = icmp eq i32 %15, 0
  br i1 %.not35, label %29, label %16

16:                                               ; preds = %11
  br i1 %.not36, label %25, label %17

17:                                               ; preds = %16
  %18 = getelementptr inbounds nuw i8, ptr %5, i64 24
  %19 = load i32, ptr %18, align 8, !tbaa !83
  %.not40 = icmp eq i32 %19, 0
  %20 = getelementptr inbounds nuw i8, ptr %5, i64 80
  %21 = load i32, ptr %20, align 8, !tbaa !137
  %switch.tableidx47 = add i32 %21, -1
  %22 = icmp ult i32 %switch.tableidx47, 4
  br i1 %.not40, label %24, label %23

23:                                               ; preds = %17
  br i1 %22, label %switch.lookup, label %42

24:                                               ; preds = %17
  br i1 %22, label %switch.lookup46, label %42

25:                                               ; preds = %16
  %26 = getelementptr inbounds nuw i8, ptr %5, i64 80
  %27 = load i32, ptr %26, align 8, !tbaa !137
  %switch.tableidx51 = add i32 %27, -1
  %28 = icmp ult i32 %switch.tableidx51, 5
  br i1 %28, label %switch.lookup50, label %42

29:                                               ; preds = %11
  br i1 %.not36, label %38, label %30

30:                                               ; preds = %29
  %31 = getelementptr inbounds nuw i8, ptr %5, i64 24
  %32 = load i32, ptr %31, align 8, !tbaa !83
  %.not37 = icmp eq i32 %32, 0
  %33 = getelementptr inbounds nuw i8, ptr %5, i64 80
  %34 = load i32, ptr %33, align 8, !tbaa !137
  %switch.tableidx57 = add i32 %34, -2
  %35 = icmp ult i32 %switch.tableidx57, 3
  br i1 %.not37, label %37, label %36

36:                                               ; preds = %30
  br i1 %35, label %switch.lookup54, label %42

37:                                               ; preds = %30
  br i1 %35, label %switch.lookup56, label %42

38:                                               ; preds = %29
  %39 = getelementptr inbounds nuw i8, ptr %5, i64 80
  %40 = load i32, ptr %39, align 8, !tbaa !137
  %switch.tableidx60 = add i32 %40, -2
  %41 = icmp ult i32 %switch.tableidx60, 4
  br i1 %41, label %switch.lookup59, label %42

42:                                               ; preds = %38, %37, %36, %25, %24, %23
  tail call void (ptr, i32, i32, ptr, ptr, ptr, ...) @arkProcessError(ptr noundef nonnull %0, i32 noundef -22, i32 noundef 3214, ptr noundef nonnull @__func__.mriStep_SetCoupling, ptr noundef nonnull @.str, ptr noundef nonnull @.str.76) #14
  br label %70

switch.lookup:                                    ; preds = %23
  %43 = zext nneg i32 %switch.tableidx47 to i64
  %switch.gep = getelementptr inbounds nuw [4 x i32], ptr @switch.table.mriStep_SetCoupling, i64 0, i64 %43
  %switch.load = load i32, ptr %switch.gep, align 4
  br label %47

switch.lookup46:                                  ; preds = %24
  %44 = zext nneg i32 %switch.tableidx47 to i64
  %switch.gep48 = getelementptr inbounds nuw [4 x i32], ptr @switch.table.mriStep_SetCoupling.1, i64 0, i64 %44
  %switch.load49 = load i32, ptr %switch.gep48, align 4
  br label %47

switch.lookup50:                                  ; preds = %25
  %45 = zext nneg i32 %switch.tableidx51 to i64
  %switch.gep52 = getelementptr inbounds nuw [5 x i32], ptr @switch.table.mriStep_SetCoupling.2, i64 0, i64 %45
  %switch.load53 = load i32, ptr %switch.gep52, align 4
  br label %47

switch.lookup54:                                  ; preds = %36
  %switch.offset = add nuw nsw i32 %34, 221
  br label %47

switch.lookup56:                                  ; preds = %37
  %switch.offset58 = add nuw nsw i32 %34, 201
  br label %47

switch.lookup59:                                  ; preds = %38
  %46 = zext nneg i32 %switch.tableidx60 to i64
  %switch.gep61 = getelementptr inbounds nuw [4 x i32], ptr @switch.table.mriStep_SetCoupling.3, i64 0, i64 %46
  %switch.load62 = load i32, ptr %switch.gep61, align 4
  br label %47

47:                                               ; preds = %switch.lookup59, %switch.lookup56, %switch.lookup54, %switch.lookup50, %switch.lookup46, %switch.lookup
  %.0.ph = phi i32 [ %switch.load, %switch.lookup ], [ %switch.load49, %switch.lookup46 ], [ %switch.load53, %switch.lookup50 ], [ %switch.offset, %switch.lookup54 ], [ %switch.offset58, %switch.lookup56 ], [ %switch.load62, %switch.lookup59 ]
  %48 = tail call ptr @MRIStepCoupling_LoadTable(i32 noundef %.0.ph) #14
  store ptr %48, ptr %9, align 8, !tbaa !125
  %49 = icmp eq ptr %48, null
  br i1 %49, label %50, label %51

50:                                               ; preds = %47
  tail call void (ptr, i32, i32, ptr, ptr, ptr, ...) @arkProcessError(ptr noundef nonnull %0, i32 noundef -41, i32 noundef 3222, ptr noundef nonnull @__func__.mriStep_SetCoupling, ptr noundef nonnull @.str, ptr noundef nonnull @.str.77) #14
  br label %70

51:                                               ; preds = %47
  call void @MRIStepCoupling_Space(ptr noundef nonnull %48, ptr noundef nonnull %2, ptr noundef nonnull %3) #14
  %52 = load i64, ptr %2, align 8, !tbaa !193
  %53 = getelementptr inbounds nuw i8, ptr %0, i64 880
  %54 = load i64, ptr %53, align 8, !tbaa !85
  %55 = add nsw i64 %54, %52
  store i64 %55, ptr %53, align 8, !tbaa !85
  %56 = load i64, ptr %3, align 8, !tbaa !193
  %57 = getelementptr inbounds nuw i8, ptr %0, i64 872
  %58 = load i64, ptr %57, align 8, !tbaa !86
  %59 = add nsw i64 %58, %56
  store i64 %59, ptr %57, align 8, !tbaa !86
  %60 = load ptr, ptr %9, align 8, !tbaa !125
  %61 = getelementptr inbounds nuw i8, ptr %60, i64 8
  %62 = load i32, ptr %61, align 8, !tbaa !130
  %63 = getelementptr inbounds nuw i8, ptr %5, i64 88
  store i32 %62, ptr %63, align 8, !tbaa !131
  %64 = getelementptr inbounds nuw i8, ptr %60, i64 12
  %65 = load i32, ptr %64, align 4, !tbaa !132
  %66 = getelementptr inbounds nuw i8, ptr %5, i64 80
  store i32 %65, ptr %66, align 8, !tbaa !137
  %67 = getelementptr inbounds nuw i8, ptr %60, i64 16
  %68 = load i32, ptr %67, align 8, !tbaa !138
  %69 = getelementptr inbounds nuw i8, ptr %5, i64 84
  store i32 %68, ptr %69, align 4, !tbaa !140
  br label %70

70:                                               ; preds = %8, %51, %50, %42, %7
  %.032 = phi i32 [ -21, %7 ], [ -22, %42 ], [ -41, %50 ], [ 0, %51 ], [ 0, %8 ]
  call void @llvm.lifetime.end.p0(i64 8, ptr nonnull %3) #14
  call void @llvm.lifetime.end.p0(i64 8, ptr nonnull %2) #14
  ret i32 %.032
}